/*
 * Intel ACPI Component Architecture
 * AML/ASL+ Disassembler version 20250404 (64-bit version)
 * Copyright (c) 2000 - 2025 Intel Corporation
 * 
 * Disassembly of fidt.dat
 *
 * ACPI Data Table [FIDT]
 *
 * Format: [HexOffset DecimalOffset ByteLength]  FieldName : FieldValue (in hex)
 */

[000h 0000 004h]                   Signature : "FIDT"    
[004h 0004 004h]                Table Length : 0000009C
[008h 0008 001h]                    Revision : 01
[009h 0009 001h]                    Checksum : D9
[00Ah 0010 006h]                      Oem ID : "INTEL"
[010h 0016 008h]                Oem Table ID : "NUC5i5RY"
[018h 0024 004h]                Oem Revision : 00000182
[01Ch 0028 004h]             Asl Compiler ID : "AMI "
[020h 0032 004h]       Asl Compiler Revision : 00010013


**** Unknown ACPI table signature [FIDT]


Raw Table Data: Length 156 (0x9C)

    0000: 46 49 44 54 9C 00 00 00 01 D9 49 4E 54 45 4C 00  // FIDT......INTEL.
    0010: 4E 55 43 35 69 35 52 59 82 01 00 00 41 4D 49 20  // NUC5i5RY....AMI 
    0020: 13 00 01 00 24 46 49 44 04 78 00 31 41 52 55 44  // ....$FID.x.1ARUD
    0030: 30 33 33 00 A9 82 A9 36 B8 74 3E 4C B0 E2 EC E0  // 033....6.t>L....
    0040: 2D 91 9A 8C 30 35 00 30 36 00 30 30 00 33 33 00  // -...05.06.00.33.
    0050: 00 00 00 00 00 00 00 FF FF 49 4E 54 45 4C 20 4E  // .........INTEL N
    0060: 55 43 35 69 33 52 59 00 00 00 00 00 00 00 00 00  // UC5i3RY.........
    0070: 00 00 00 00 00 00 00 00 00 00 00 00 00 00 00 00  // ................
    0080: 00 00 00 00 00 00 00 00 00 00 00 00 00 00 00 00  // ................
    0090: 00 00 00 00 00 00 00 00 00 00 00 00              // ............
