/*
 * Intel ACPI Component Architecture
 * AML/ASL+ Disassembler version 20250404 (64-bit version)
 * Copyright (c) 2000 - 2025 Intel Corporation
 * 
 * Disassembly of uefi.dat
 *
 * ACPI Data Table [UEFI]
 *
 * Format: [HexOffset DecimalOffset ByteLength]  FieldName : FieldValue (in hex)
 */

[000h 0000 004h]                   Signature : "UEFI"    [UEFI Boot Optimization Table]
[004h 0004 004h]                Table Length : 00000042
[008h 0008 001h]                    Revision : 01
[009h 0009 001h]                    Checksum : A9
[00Ah 0010 006h]                      Oem ID : "INTEL"
[010h 0016 008h]                Oem Table ID : "NUC5i5RY"
[018h 0024 004h]                Oem Revision : 00000182
[01Ch 0028 004h]             Asl Compiler ID : ""
[020h 0032 004h]       Asl Compiler Revision : 00000000

[024h 0036 010h]             UUID Identifier : C68ED8E2-9DC6-4CBD-9D94-DB65ACC5C332
[034h 0052 002h]                 Data Offset : 0036

Raw Table Data: Length 66 (0x42)

    0000: 55 45 46 49 42 00 00 00 01 A9 49 4E 54 45 4C 00  // UEFIB.....INTEL.
    0010: 4E 55 43 35 69 35 52 59 82 01 00 00 00 00 00 00  // NUC5i5RY........
    0020: 00 00 00 00 E2 D8 8E C6 C6 9D BD 4C 9D 94 DB 65  // ...........L...e
    0030: AC C5 C3 32 36 00 01 00 00 00 00 00 00 00 00 00  // ...26...........
    0040: 00 00                                            // ..
